; Function Attrs: nounwind uwtable
define hidden void @evhttp_start_write_(ptr noundef initializes((280, 284), (312, 328)) %0) local_unnamed_addr #0 {
  %2 = getelementptr inbounds nuw i8, ptr %0, i64 16
  %3 = load ptr, ptr %2, align 8
  %4 = tail call i32 @bufferevent_disable(ptr noundef %3, i16 noundef signext 4) #18
  %5 = load ptr, ptr %2, align 8
  %6 = tail call i32 @bufferevent_enable(ptr noundef %5, i16 noundef signext 2) #18
  %7 = getelementptr inbounds nuw i8, ptr %0, i64 280
  store i32 7, ptr %7, align 8
  %8 = load i32, ptr @event_debug_logging_mask_, align 4
  %.not.i = icmp eq i32 %8, 0
  br i1 %.not.i, label %evhttp_write_buffer.exit, label %9

9:                                                ; preds = %1
  tail call void (ptr, ...) @event_debugx_(ptr noundef nonnull @.str.95, ptr noundef nonnull @__func__.evhttp_write_buffer) #18
  br label %evhttp_write_buffer.exit

evhttp_write_buffer.exit:                         ; preds = %1, %9
  %10 = getelementptr inbounds nuw i8, ptr %0, i64 312
  store ptr @evhttp_write_connectioncb, ptr %10, align 8
  %11 = getelementptr inbounds nuw i8, ptr %0, i64 320
  store ptr null, ptr %11, align 8
  %12 = load ptr, ptr %2, align 8
  tail call void @bufferevent_setcb(ptr noundef %12, ptr noundef null, ptr noundef nonnull @evhttp_write_cb, ptr noundef nonnull @evhttp_error_cb, ptr noundef nonnull %0) #18
  %13 = load ptr, ptr %2, align 8
  %14 = tail call i32 @bufferevent_enable(ptr noundef %13, i16 noundef signext 6) #18
  ret void
}